; Function Attrs: null_pointer_is_valid sspstrong uwtable
define hidden ptr @pbl_enum_descriptor_FindValueByNumber(ptr noundef readonly captures(address_is_null) %0, i32 noundef %1) local_unnamed_addr #0 {
  %.not = icmp eq ptr %0, null
  br i1 %.not, label %10, label %3

3:                                                ; preds = %2
  %4 = getelementptr inbounds nuw i8, ptr %0, i64 72
  %5 = load ptr, ptr %4, align 8
  %.not6 = icmp eq ptr %5, null
  br i1 %.not6, label %10, label %6

6:                                                ; preds = %3
  %7 = sext i32 %1 to i64
  %8 = inttoptr i64 %7 to ptr
  %9 = tail call ptr @g_hash_table_lookup(ptr noundef nonnull %5, ptr noundef %8)
  br label %10

10:                                               ; preds = %2, %3, %6
  %.0 = phi ptr [ %9, %6 ], [ null, %3 ], [ null, %2 ]
  ret ptr %.0
}